target datalayout = "e-m:e-p270:32:32-p271:32:32-p272:64:64-i64:64-i128:128-f80:128-n8:16:32:64-S128"
target triple = "x86_64-pc-linux-gnu"

; Function Attrs: nounwind uwtable
define internal float @avifToLinearSMPTE240(float noundef %0) #0 {
  %2 = alloca float, align 4
  %3 = alloca float, align 4
  store float %0, ptr %3, align 4
  %4 = load float, ptr %3, align 4
  %5 = fcmp olt float %4, 0.000000e+00
  br i1 %5, label %6, label %7

6:                                                ; preds = %1
  store float 0.000000e+00, ptr %2, align 4
  br label %22

7:                                                ; preds = %1
  %8 = load float, ptr %3, align 4
  %9 = fcmp olt float %8, 0x3FB75E8AA0000000
  br i1 %9, label %10, label %13

10:                                               ; preds = %7
  %11 = load float, ptr %3, align 4
  %12 = fdiv float %11, 4.000000e+00
  store float %12, ptr %2, align 4
  br label %22

13:                                               ; preds = %7
  %14 = load float, ptr %3, align 4
  %15 = fcmp olt float %14, 1.000000e+00
  br i1 %15, label %16, label %21

16:                                               ; preds = %13
  %17 = load float, ptr %3, align 4
  %18 = fadd float %17, 0x3FBC8FFEE0000000
  %19 = fdiv float %18, 0x3FF1C8FFE0000000
  %20 = call float @powf(float noundef %19, float noundef 0x4001C71C80000000) #4
  store float %20, ptr %2, align 4
  br label %22

21:                                               ; preds = %13
  store float 1.000000e+00, ptr %2, align 4
  br label %22

22:                                               ; preds = %21, %16, %10, %6
  %23 = load float, ptr %2, align 4
  ret float %23
}